target datalayout = "e-m:e-p270:32:32-p271:32:32-p272:64:64-i64:64-i128:128-f80:128-n8:16:32:64-S128"
target triple = "x86_64-pc-linux-gnu"

%struct.io_buffer_memmove_arguments = type { ptr, ptr, i64 }

; Function Attrs: alwaysinline nounwind
define internal ptr @memmove.inline(ptr nonnull %0, ptr nonnull %1, i64 %2) #10 {
  %4 = alloca ptr, align 8
  %5 = alloca ptr, align 8
  %6 = alloca i64, align 8
  store ptr %0, ptr %4, align 8, !tbaa !7
  store ptr %1, ptr %5, align 8, !tbaa !7
  store i64 %2, ptr %6, align 8, !tbaa !20
  %7 = load ptr, ptr %4, align 8, !tbaa !7
  %8 = load ptr, ptr %5, align 8, !tbaa !7
  %9 = load i64, ptr %6, align 8, !tbaa !20
  %10 = load ptr, ptr %4, align 8, !tbaa !7
  %11 = call i64 @llvm.objectsize.i64.p0(ptr %10, i1 false, i1 true, i1 false)
  %12 = call ptr @__memmove_chk(ptr noundef %7, ptr noundef %8, i64 noundef %9, i64 noundef %11) #22
  ret ptr %12
}

; Function Attrs: nounwind sspstrong uwtable
define internal ptr @io_buffer_memmove_blocking(ptr noundef %0) #0 {
  %2 = alloca ptr, align 8
  %3 = alloca ptr, align 8
  store ptr %0, ptr %2, align 8, !tbaa !7
  call void @llvm.lifetime.start.p0(i64 8, ptr %3) #22
  %4 = load ptr, ptr %2, align 8, !tbaa !7
  store ptr %4, ptr %3, align 8, !tbaa !107
  %5 = load ptr, ptr %3, align 8, !tbaa !107
  %6 = getelementptr inbounds nuw %struct.io_buffer_memmove_arguments, ptr %5, i32 0, i32 0
  %7 = load ptr, ptr %6, align 8, !tbaa !103
  %8 = load ptr, ptr %3, align 8, !tbaa !107
  %9 = getelementptr inbounds nuw %struct.io_buffer_memmove_arguments, ptr %8, i32 0, i32 1
  %10 = load ptr, ptr %9, align 8, !tbaa !105
  %11 = load ptr, ptr %3, align 8, !tbaa !107
  %12 = getelementptr inbounds nuw %struct.io_buffer_memmove_arguments, ptr %11, i32 0, i32 2
  %13 = load i64, ptr %12, align 8, !tbaa !106
  %14 = call ptr @memmove.inline(ptr noundef %7, ptr noundef %10, i64 noundef %13) #22
  call void @llvm.lifetime.end.p0(i64 8, ptr %3) #22
  ret ptr null
}