; Function Attrs: nofree nounwind sspstrong uwtable
define internal noalias noundef ptr @io_buffer_memmove_blocking(ptr noundef readonly captures(none) %0) #16 {
  %2 = load ptr, ptr %0, align 8, !tbaa !147
  %3 = getelementptr inbounds nuw i8, ptr %0, i64 8
  %4 = load ptr, ptr %3, align 8, !tbaa !149
  %5 = getelementptr inbounds nuw i8, ptr %0, i64 16
  %6 = load i64, ptr %5, align 8, !tbaa !150
  tail call void @llvm.memmove.p0.p0.i64(ptr noundef nonnull align 1 %2, ptr noundef nonnull align 1 %4, i64 noundef %6, i1 noundef false) #25
  ret ptr null
}